target datalayout = "e-m:e-p270:32:32-p271:32:32-p272:64:64-i64:64-i128:128-f80:128-n8:16:32:64-S128"
target triple = "x86_64-pc-linux-gnu"

%struct.Pxy_t = type { double, double }

; Function Attrs: nounwind uwtable
define i32 @ccw(double %0, double %1, double %2, double %3, double %4, double %5) #0 {
  %7 = alloca %struct.Pxy_t, align 8
  %8 = alloca %struct.Pxy_t, align 8
  %9 = alloca %struct.Pxy_t, align 8
  %10 = alloca double, align 8
  %11 = getelementptr inbounds nuw { double, double }, ptr %7, i32 0, i32 0
  store double %0, ptr %11, align 8
  %12 = getelementptr inbounds nuw { double, double }, ptr %7, i32 0, i32 1
  store double %1, ptr %12, align 8
  %13 = getelementptr inbounds nuw { double, double }, ptr %8, i32 0, i32 0
  store double %2, ptr %13, align 8
  %14 = getelementptr inbounds nuw { double, double }, ptr %8, i32 0, i32 1
  store double %3, ptr %14, align 8
  %15 = getelementptr inbounds nuw { double, double }, ptr %9, i32 0, i32 0
  store double %4, ptr %15, align 8
  %16 = getelementptr inbounds nuw { double, double }, ptr %9, i32 0, i32 1
  store double %5, ptr %16, align 8
  call void @llvm.lifetime.start.p0(i64 8, ptr %10) #9
  %17 = getelementptr inbounds nuw %struct.Pxy_t, ptr %7, i32 0, i32 1
  %18 = load double, ptr %17, align 8, !tbaa !3
  %19 = getelementptr inbounds nuw %struct.Pxy_t, ptr %8, i32 0, i32 1
  %20 = load double, ptr %19, align 8, !tbaa !3
  %21 = fsub double %18, %20
  %22 = getelementptr inbounds nuw %struct.Pxy_t, ptr %9, i32 0, i32 0
  %23 = load double, ptr %22, align 8, !tbaa !8
  %24 = getelementptr inbounds nuw %struct.Pxy_t, ptr %8, i32 0, i32 0
  %25 = load double, ptr %24, align 8, !tbaa !8
  %26 = fsub double %23, %25
  %27 = getelementptr inbounds nuw %struct.Pxy_t, ptr %9, i32 0, i32 1
  %28 = load double, ptr %27, align 8, !tbaa !3
  %29 = getelementptr inbounds nuw %struct.Pxy_t, ptr %8, i32 0, i32 1
  %30 = load double, ptr %29, align 8, !tbaa !3
  %31 = fsub double %28, %30
  %32 = getelementptr inbounds nuw %struct.Pxy_t, ptr %7, i32 0, i32 0
  %33 = load double, ptr %32, align 8, !tbaa !8
  %34 = getelementptr inbounds nuw %struct.Pxy_t, ptr %8, i32 0, i32 0
  %35 = load double, ptr %34, align 8, !tbaa !8
  %36 = fsub double %33, %35
  %37 = fmul double %31, %36
  %38 = fneg double %37
  %39 = call double @llvm.fmuladd.f64(double %21, double %26, double %38)
  store double %39, ptr %10, align 8, !tbaa !9
  %40 = load double, ptr %10, align 8, !tbaa !9
  %41 = fcmp ogt double %40, 0.000000e+00
  br i1 %41, label %42, label %43

42:                                               ; preds = %6
  br label %47

43:                                               ; preds = %6
  %44 = load double, ptr %10, align 8, !tbaa !9
  %45 = fcmp olt double %44, 0.000000e+00
  %46 = select i1 %45, i32 1, i32 3
  br label %47

47:                                               ; preds = %43, %42
  %48 = phi i32 [ 2, %42 ], [ %46, %43 ]
  call void @llvm.lifetime.end.p0(i64 8, ptr %10) #9
  ret i32 %48
}