; Function Attrs: mustprogress nofree norecurse nosync nounwind willreturn memory(none) uwtable
define range(i32 1, 4) i32 @ccw(double %0, double %1, double %2, double %3, double %4, double %5) local_unnamed_addr #0 {
  %7 = fsub double %1, %3
  %8 = fsub double %4, %2
  %9 = fsub double %5, %3
  %10 = fsub double %0, %2
  %11 = fneg double %10
  %12 = fmul double %9, %11
  %13 = tail call double @llvm.fmuladd.f64(double %7, double %8, double %12)
  %14 = fcmp ogt double %13, 0.000000e+00
  %15 = fcmp olt double %13, 0.000000e+00
  %16 = select i1 %15, i32 1, i32 3
  %17 = select i1 %14, i32 2, i32 %16
  ret i32 %17
}